target datalayout = "e-m:e-p270:32:32-p271:32:32-p272:64:64-i64:64-i128:128-f80:128-n8:16:32:64-S128"
target triple = "x86_64-pc-linux-gnu"

%"class.std::__1::basic_ios.base" = type <{ %"class.std::__1::ios_base", ptr, %"struct.std::__1::_SentinelValueFill" }>
%"class.std::__1::ios_base" = type { ptr, i32, i64, i64, i32, i32, ptr, ptr, ptr, ptr, i64, i64, ptr, i64, i64, ptr, i64, i64 }
%"struct.std::__1::_SentinelValueFill" = type { i32 }
%"class.std::__1::basic_streambuf" = type { ptr, %"class.std::__1::locale", ptr, ptr, ptr, ptr, ptr, ptr }
%"class.std::__1::locale" = type { ptr }
%struct.__mbstate_t = type { i32, %union.anon }
%union.anon = type { i32 }
%"union.std::__1::stream_data.0" = type { %struct.anon.1 }
%struct.anon.1 = type { %"class.std::__1::basic_ostream", %"class.std::__1::__stdoutbuf", %struct.__mbstate_t }
%"class.std::__1::basic_ostream" = type { ptr, %"class.std::__1::basic_ios.base" }
%"class.std::__1::__stdoutbuf" = type <{ %"class.std::__1::basic_streambuf", ptr, ptr, ptr, i8, [7 x i8] }>
%"class.std::__1::basic_ios.base.7" = type <{ %"class.std::__1::ios_base", ptr, %"struct.std::__1::_SentinelValueFill.6" }>
%"struct.std::__1::_SentinelValueFill.6" = type { i32 }
%"class.std::__1::basic_streambuf.10" = type { ptr, %"class.std::__1::locale", ptr, ptr, ptr, ptr, ptr, ptr }
%"union.std::__1::stream_data.12" = type { %struct.anon.13 }
%struct.anon.13 = type { %"class.std::__1::basic_ostream.14", %"class.std::__1::__stdoutbuf.16", %struct.__mbstate_t }
%"class.std::__1::basic_ostream.14" = type { ptr, %"class.std::__1::basic_ios.base.7" }
%"class.std::__1::__stdoutbuf.16" = type <{ %"class.std::__1::basic_streambuf.10", ptr, ptr, ptr, i8, [7 x i8] }>

@_ZNSt3__14coutE = dso_local global %"union.std::__1::stream_data.0" undef, align 8
@_ZNSt3__14clogE = dso_local global %"union.std::__1::stream_data.0" undef, align 8
@_ZNSt3__15wcoutE = dso_local global %"union.std::__1::stream_data.12" undef, align 8
@_ZNSt3__15wclogE = dso_local global %"union.std::__1::stream_data.12" undef, align 8

; Function Attrs: mustprogress nounwind uwtable
define hidden void @_ZNSt3__19DoIOSInitD2Ev(ptr noundef nonnull align 1 dereferenceable(1) %0) unnamed_addr #3 align 2 personality ptr @__gxx_personality_v0 {
  %2 = alloca ptr, align 8
  store ptr %0, ptr %2, align 8, !tbaa !4
  %3 = invoke noundef nonnull align 8 dereferenceable(8) ptr @_ZNSt3__113basic_ostreamIcNS_11char_traitsIcEEE5flushEv(ptr noundef nonnull align 8 dereferenceable(8) @_ZNSt3__14coutE)
          to label %4 unwind label %11

4:                                                ; preds = %1
  %5 = invoke noundef nonnull align 8 dereferenceable(8) ptr @_ZNSt3__113basic_ostreamIcNS_11char_traitsIcEEE5flushEv(ptr noundef nonnull align 8 dereferenceable(8) @_ZNSt3__14clogE)
          to label %6 unwind label %11

6:                                                ; preds = %4
  %7 = invoke noundef nonnull align 8 dereferenceable(8) ptr @_ZNSt3__113basic_ostreamIwNS_11char_traitsIwEEE5flushEv(ptr noundef nonnull align 8 dereferenceable(8) @_ZNSt3__15wcoutE)
          to label %8 unwind label %11

8:                                                ; preds = %6
  %9 = invoke noundef nonnull align 8 dereferenceable(8) ptr @_ZNSt3__113basic_ostreamIwNS_11char_traitsIwEEE5flushEv(ptr noundef nonnull align 8 dereferenceable(8) @_ZNSt3__15wclogE)
          to label %10 unwind label %11

10:                                               ; preds = %8
  ret void

11:                                               ; preds = %8, %6, %4, %1
  %12 = landingpad { ptr, i32 }
          catch ptr null
  %13 = extractvalue { ptr, i32 } %12, 0
  call void @__clang_call_terminate(ptr %13) #15
  unreachable
}