; Function Attrs: mustprogress nounwind uwtable
define hidden void @_ZNSt3__19DoIOSInitD2Ev(ptr nonnull readnone align 1 captures(none) %0) unnamed_addr #2 align 2 personality ptr @__gxx_personality_v0 {
  %2 = invoke noundef nonnull align 8 dereferenceable(8) ptr @_ZNSt3__113basic_ostreamIcNS_11char_traitsIcEEE5flushEv(ptr noundef nonnull align 8 dereferenceable(8) @_ZNSt3__14coutE)
          to label %3 unwind label %10

3:                                                ; preds = %1
  %4 = invoke noundef nonnull align 8 dereferenceable(8) ptr @_ZNSt3__113basic_ostreamIcNS_11char_traitsIcEEE5flushEv(ptr noundef nonnull align 8 dereferenceable(8) @_ZNSt3__14clogE)
          to label %5 unwind label %10

5:                                                ; preds = %3
  %6 = invoke noundef nonnull align 8 dereferenceable(8) ptr @_ZNSt3__113basic_ostreamIwNS_11char_traitsIwEEE5flushEv(ptr noundef nonnull align 8 dereferenceable(8) @_ZNSt3__15wcoutE)
          to label %7 unwind label %10

7:                                                ; preds = %5
  %8 = invoke noundef nonnull align 8 dereferenceable(8) ptr @_ZNSt3__113basic_ostreamIwNS_11char_traitsIwEEE5flushEv(ptr noundef nonnull align 8 dereferenceable(8) @_ZNSt3__15wclogE)
          to label %9 unwind label %10

9:                                                ; preds = %7
  ret void

10:                                               ; preds = %7, %5, %3, %1
  %11 = landingpad { ptr, i32 }
          catch ptr null
  %12 = extractvalue { ptr, i32 } %11, 0
  tail call void @__clang_call_terminate(ptr %12) #17
  unreachable
}